target datalayout = "e-m:e-p270:32:32-p271:32:32-p272:64:64-i64:64-i128:128-f80:128-n8:16:32:64-S128"
target triple = "x86_64-pc-linux-gnu"

%struct.expert_field = type { i32, i32 }
%struct._header_field_info = type { ptr, ptr, i32, i32, ptr, i64, ptr, i32, i32, i32, i32, ptr }

@ei_ber_error_length = internal global %struct.expert_field zeroinitializer, align 4
@.str.342 = private unnamed_addr constant [10 x i8] c"<MISSING>\00", align 1
@.str.343 = private unnamed_addr constant [48 x i8] c"BER Error: %s: length of item (%d) is not valid\00", align 1

; Function Attrs: null_pointer_is_valid sspstrong uwtable
define internal ptr @ber_add_bad_length_error(ptr noundef %0, ptr noundef %1, ptr noundef %2, ptr noundef %3, i32 noundef %4, i32 noundef %5) #0 {
  %7 = alloca ptr, align 8
  %8 = alloca ptr, align 8
  %9 = alloca ptr, align 8
  %10 = alloca ptr, align 8
  %11 = alloca i32, align 4
  %12 = alloca i32, align 4
  %13 = alloca ptr, align 8
  store ptr %0, ptr %7, align 8
  store ptr %1, ptr %8, align 8
  store ptr %2, ptr %9, align 8
  store ptr %3, ptr %10, align 8
  store i32 %4, ptr %11, align 4
  store i32 %5, ptr %12, align 4
  call void @llvm.lifetime.start.p0(i64 8, ptr %13) #12
  %14 = load ptr, ptr %8, align 8
  %15 = load ptr, ptr %7, align 8
  %16 = load ptr, ptr %10, align 8
  %17 = load i32, ptr %11, align 4
  %18 = load i32, ptr %12, align 4
  %19 = load ptr, ptr %9, align 8
  %20 = load i32, ptr %12, align 4
  %21 = call ptr (ptr, ptr, ptr, ptr, i32, i32, ptr, ...) @proto_tree_add_expert_format(ptr noundef %14, ptr noundef %15, ptr noundef @ei_ber_error_length, ptr noundef %16, i32 noundef %17, i32 noundef %18, ptr noundef @.str.343, ptr noundef %19, i32 noundef %20)
  store ptr %21, ptr %13, align 8
  %22 = load ptr, ptr %13, align 8
  call void @llvm.lifetime.end.p0(i64 8, ptr %13) #12
  ret ptr %22
}

; Function Attrs: null_pointer_is_valid sspstrong uwtable
define internal ptr @ber_proto_tree_add_item(ptr noundef %0, ptr noundef %1, i32 noundef %2, ptr noundef %3, i32 noundef %4, i32 noundef %5, i32 noundef %6) #0 {
  %8 = alloca ptr, align 8
  %9 = alloca ptr, align 8
  %10 = alloca ptr, align 8
  %11 = alloca i32, align 4
  %12 = alloca ptr, align 8
  %13 = alloca i32, align 4
  %14 = alloca i32, align 4
  %15 = alloca i32, align 4
  %16 = alloca ptr, align 8
  %17 = alloca ptr, align 8
  %18 = alloca i32, align 4
  store ptr %0, ptr %9, align 8
  store ptr %1, ptr %10, align 8
  store i32 %2, ptr %11, align 4
  store ptr %3, ptr %12, align 8
  store i32 %4, ptr %13, align 4
  store i32 %5, ptr %14, align 4
  store i32 %6, ptr %15, align 4
  call void @llvm.lifetime.start.p0(i64 8, ptr %16) #12
  call void @llvm.lifetime.start.p0(i64 8, ptr %17) #12
  %19 = load i32, ptr %11, align 4
  %20 = call ptr @proto_registrar_get_nth(i32 noundef %19)
  store ptr %20, ptr %16, align 8
  %21 = load ptr, ptr %16, align 8
  %22 = icmp ne ptr %21, null
  br i1 %22, label %23, label %184

23:                                               ; preds = %7
  %24 = load ptr, ptr %16, align 8
  %25 = getelementptr inbounds nuw %struct._header_field_info, ptr %24, i32 0, i32 2
  %26 = load i32, ptr %25, align 8
  switch i32 %26, label %182 [
    i32 2, label %27
    i32 4, label %27
    i32 5, label %27
    i32 6, label %27
    i32 7, label %27
    i32 12, label %27
    i32 13, label %27
    i32 14, label %27
    i32 15, label %27
    i32 32, label %50
    i32 34, label %64
    i32 33, label %78
    i32 29, label %95
    i32 36, label %109
    i32 22, label %123
    i32 23, label %137
    i32 24, label %151
    i32 25, label %151
    i32 26, label %168
  ]

27:                                               ; preds = %23, %23, %23, %23, %23, %23, %23, %23, %23
  %28 = load i32, ptr %14, align 4
  %29 = icmp ne i32 %28, 1
  br i1 %29, label %30, label %49

30:                                               ; preds = %27
  %31 = load i32, ptr %14, align 4
  %32 = icmp ne i32 %31, 2
  br i1 %32, label %33, label %49

33:                                               ; preds = %30
  %34 = load i32, ptr %14, align 4
  %35 = icmp ne i32 %34, 3
  br i1 %35, label %36, label %49

36:                                               ; preds = %33
  %37 = load i32, ptr %14, align 4
  %38 = icmp ne i32 %37, 4
  br i1 %38, label %39, label %49

39:                                               ; preds = %36
  %40 = load ptr, ptr %9, align 8
  %41 = load ptr, ptr %10, align 8
  %42 = load ptr, ptr %16, align 8
  %43 = getelementptr inbounds nuw %struct._header_field_info, ptr %42, i32 0, i32 0
  %44 = load ptr, ptr %43, align 8
  %45 = load ptr, ptr %12, align 8
  %46 = load i32, ptr %13, align 4
  %47 = load i32, ptr %14, align 4
  %48 = call ptr @ber_add_bad_length_error(ptr noundef %40, ptr noundef %41, ptr noundef %44, ptr noundef %45, i32 noundef %46, i32 noundef %47)
  store ptr %48, ptr %8, align 8
  store i32 1, ptr %18, align 4
  br label %192

49:                                               ; preds = %36, %33, %30, %27
  br label %183

50:                                               ; preds = %23
  %51 = load i32, ptr %14, align 4
  %52 = icmp ne i32 %51, 4
  br i1 %52, label %53, label %63

53:                                               ; preds = %50
  %54 = load ptr, ptr %9, align 8
  %55 = load ptr, ptr %10, align 8
  %56 = load ptr, ptr %16, align 8
  %57 = getelementptr inbounds nuw %struct._header_field_info, ptr %56, i32 0, i32 0
  %58 = load ptr, ptr %57, align 8
  %59 = load ptr, ptr %12, align 8
  %60 = load i32, ptr %13, align 4
  %61 = load i32, ptr %14, align 4
  %62 = call ptr @ber_add_bad_length_error(ptr noundef %54, ptr noundef %55, ptr noundef %58, ptr noundef %59, i32 noundef %60, i32 noundef %61)
  store ptr %62, ptr %8, align 8
  store i32 1, ptr %18, align 4
  br label %192

63:                                               ; preds = %50
  br label %183

64:                                               ; preds = %23
  %65 = load i32, ptr %14, align 4
  %66 = icmp ne i32 %65, 4
  br i1 %66, label %67, label %77

67:                                               ; preds = %64
  %68 = load ptr, ptr %9, align 8
  %69 = load ptr, ptr %10, align 8
  %70 = load ptr, ptr %16, align 8
  %71 = getelementptr inbounds nuw %struct._header_field_info, ptr %70, i32 0, i32 0
  %72 = load ptr, ptr %71, align 8
  %73 = load ptr, ptr %12, align 8
  %74 = load i32, ptr %13, align 4
  %75 = load i32, ptr %14, align 4
  %76 = call ptr @ber_add_bad_length_error(ptr noundef %68, ptr noundef %69, ptr noundef %72, ptr noundef %73, i32 noundef %74, i32 noundef %75)
  store ptr %76, ptr %8, align 8
  store i32 1, ptr %18, align 4
  br label %192

77:                                               ; preds = %64
  br label %183

78:                                               ; preds = %23
  %79 = load i32, ptr %14, align 4
  %80 = icmp slt i32 %79, 0
  br i1 %80, label %84, label %81

81:                                               ; preds = %78
  %82 = load i32, ptr %14, align 4
  %83 = icmp sgt i32 %82, 16
  br i1 %83, label %84, label %94

84:                                               ; preds = %81, %78
  %85 = load ptr, ptr %9, align 8
  %86 = load ptr, ptr %10, align 8
  %87 = load ptr, ptr %16, align 8
  %88 = getelementptr inbounds nuw %struct._header_field_info, ptr %87, i32 0, i32 0
  %89 = load ptr, ptr %88, align 8
  %90 = load ptr, ptr %12, align 8
  %91 = load i32, ptr %13, align 4
  %92 = load i32, ptr %14, align 4
  %93 = call ptr @ber_add_bad_length_error(ptr noundef %85, ptr noundef %86, ptr noundef %89, ptr noundef %90, i32 noundef %91, i32 noundef %92)
  store ptr %93, ptr %8, align 8
  store i32 1, ptr %18, align 4
  br label %192

94:                                               ; preds = %81
  br label %183

95:                                               ; preds = %23
  %96 = load i32, ptr %14, align 4
  %97 = icmp ne i32 %96, 6
  br i1 %97, label %98, label %108

98:                                               ; preds = %95
  %99 = load ptr, ptr %9, align 8
  %100 = load ptr, ptr %10, align 8
  %101 = load ptr, ptr %16, align 8
  %102 = getelementptr inbounds nuw %struct._header_field_info, ptr %101, i32 0, i32 0
  %103 = load ptr, ptr %102, align 8
  %104 = load ptr, ptr %12, align 8
  %105 = load i32, ptr %13, align 4
  %106 = load i32, ptr %14, align 4
  %107 = call ptr @ber_add_bad_length_error(ptr noundef %99, ptr noundef %100, ptr noundef %103, ptr noundef %104, i32 noundef %105, i32 noundef %106)
  store ptr %107, ptr %8, align 8
  store i32 1, ptr %18, align 4
  br label %192

108:                                              ; preds = %95
  br label %183

109:                                              ; preds = %23
  %110 = load i32, ptr %14, align 4
  %111 = icmp ne i32 %110, 16
  br i1 %111, label %112, label %122

112:                                              ; preds = %109
  %113 = load ptr, ptr %9, align 8
  %114 = load ptr, ptr %10, align 8
  %115 = load ptr, ptr %16, align 8
  %116 = getelementptr inbounds nuw %struct._header_field_info, ptr %115, i32 0, i32 0
  %117 = load ptr, ptr %116, align 8
  %118 = load ptr, ptr %12, align 8
  %119 = load i32, ptr %13, align 4
  %120 = load i32, ptr %14, align 4
  %121 = call ptr @ber_add_bad_length_error(ptr noundef %113, ptr noundef %114, ptr noundef %117, ptr noundef %118, i32 noundef %119, i32 noundef %120)
  store ptr %121, ptr %8, align 8
  store i32 1, ptr %18, align 4
  br label %192

122:                                              ; preds = %109
  br label %183

123:                                              ; preds = %23
  %124 = load i32, ptr %14, align 4
  %125 = icmp ne i32 %124, 4
  br i1 %125, label %126, label %136

126:                                              ; preds = %123
  %127 = load ptr, ptr %9, align 8
  %128 = load ptr, ptr %10, align 8
  %129 = load ptr, ptr %16, align 8
  %130 = getelementptr inbounds nuw %struct._header_field_info, ptr %129, i32 0, i32 0
  %131 = load ptr, ptr %130, align 8
  %132 = load ptr, ptr %12, align 8
  %133 = load i32, ptr %13, align 4
  %134 = load i32, ptr %14, align 4
  %135 = call ptr @ber_add_bad_length_error(ptr noundef %127, ptr noundef %128, ptr noundef %131, ptr noundef %132, i32 noundef %133, i32 noundef %134)
  store ptr %135, ptr %8, align 8
  store i32 1, ptr %18, align 4
  br label %192

136:                                              ; preds = %123
  br label %183

137:                                              ; preds = %23
  %138 = load i32, ptr %14, align 4
  %139 = icmp ne i32 %138, 8
  br i1 %139, label %140, label %150

140:                                              ; preds = %137
  %141 = load ptr, ptr %9, align 8
  %142 = load ptr, ptr %10, align 8
  %143 = load ptr, ptr %16, align 8
  %144 = getelementptr inbounds nuw %struct._header_field_info, ptr %143, i32 0, i32 0
  %145 = load ptr, ptr %144, align 8
  %146 = load ptr, ptr %12, align 8
  %147 = load i32, ptr %13, align 4
  %148 = load i32, ptr %14, align 4
  %149 = call ptr @ber_add_bad_length_error(ptr noundef %141, ptr noundef %142, ptr noundef %145, ptr noundef %146, i32 noundef %147, i32 noundef %148)
  store ptr %149, ptr %8, align 8
  store i32 1, ptr %18, align 4
  br label %192

150:                                              ; preds = %137
  br label %183

151:                                              ; preds = %23, %23
  %152 = load i32, ptr %14, align 4
  %153 = icmp ne i32 %152, 4
  br i1 %153, label %154, label %167

154:                                              ; preds = %151
  %155 = load i32, ptr %14, align 4
  %156 = icmp ne i32 %155, 8
  br i1 %156, label %157, label %167

157:                                              ; preds = %154
  %158 = load ptr, ptr %9, align 8
  %159 = load ptr, ptr %10, align 8
  %160 = load ptr, ptr %16, align 8
  %161 = getelementptr inbounds nuw %struct._header_field_info, ptr %160, i32 0, i32 0
  %162 = load ptr, ptr %161, align 8
  %163 = load ptr, ptr %12, align 8
  %164 = load i32, ptr %13, align 4
  %165 = load i32, ptr %14, align 4
  %166 = call ptr @ber_add_bad_length_error(ptr noundef %158, ptr noundef %159, ptr noundef %162, ptr noundef %163, i32 noundef %164, i32 noundef %165)
  store ptr %166, ptr %8, align 8
  store i32 1, ptr %18, align 4
  br label %192

167:                                              ; preds = %154, %151
  br label %183

168:                                              ; preds = %23
  %169 = load i32, ptr %14, align 4
  %170 = icmp eq i32 %169, 0
  br i1 %170, label %171, label %181

171:                                              ; preds = %168
  %172 = load ptr, ptr %10, align 8
  %173 = load i32, ptr %11, align 4
  %174 = load ptr, ptr %12, align 8
  %175 = load i32, ptr %13, align 4
  %176 = load i32, ptr %14, align 4
  %177 = load i32, ptr %15, align 4
  %178 = call ptr @proto_tree_add_item(ptr noundef %172, i32 noundef %173, ptr noundef %174, i32 noundef %175, i32 noundef %176, i32 noundef %177)
  store ptr %178, ptr %17, align 8
  %179 = load ptr, ptr %17, align 8
  call void (ptr, ptr, ...) @proto_item_append_text(ptr noundef %179, ptr noundef @.str.342)
  %180 = load ptr, ptr %17, align 8
  store ptr %180, ptr %8, align 8
  store i32 1, ptr %18, align 4
  br label %192

181:                                              ; preds = %168
  br label %183

182:                                              ; preds = %23
  br label %183

183:                                              ; preds = %182, %181, %167, %150, %136, %122, %108, %94, %77, %63, %49
  br label %184

184:                                              ; preds = %183, %7
  %185 = load ptr, ptr %10, align 8
  %186 = load i32, ptr %11, align 4
  %187 = load ptr, ptr %12, align 8
  %188 = load i32, ptr %13, align 4
  %189 = load i32, ptr %14, align 4
  %190 = load i32, ptr %15, align 4
  %191 = call ptr @proto_tree_add_item(ptr noundef %185, i32 noundef %186, ptr noundef %187, i32 noundef %188, i32 noundef %189, i32 noundef %190)
  store ptr %191, ptr %8, align 8
  store i32 1, ptr %18, align 4
  br label %192

192:                                              ; preds = %184, %171, %157, %140, %126, %112, %98, %84, %67, %53, %39
  call void @llvm.lifetime.end.p0(i64 8, ptr %17) #12
  call void @llvm.lifetime.end.p0(i64 8, ptr %16) #12
  %193 = load ptr, ptr %8, align 8
  ret ptr %193
}