; Function Attrs: null_pointer_is_valid sspstrong uwtable
define internal fastcc ptr @ber_proto_tree_add_item(ptr noundef %0, ptr noundef %1, i32 noundef %2, ptr noundef %3, i32 noundef %4, i32 noundef %5, i32 noundef %6) unnamed_addr #0 {
  %8 = tail call ptr @proto_registrar_get_nth(i32 noundef %2)
  %.not = icmp eq ptr %8, null
  br i1 %.not, label %53, label %9

9:                                                ; preds = %7
  %10 = getelementptr inbounds nuw i8, ptr %8, i64 16
  %11 = load i32, ptr %10, align 8
  switch i32 %11, label %53 [
    i32 2, label %12
    i32 4, label %12
    i32 5, label %12
    i32 6, label %12
    i32 7, label %12
    i32 12, label %12
    i32 13, label %12
    i32 14, label %12
    i32 15, label %12
    i32 32, label %17
    i32 34, label %21
    i32 33, label %25
    i32 29, label %29
    i32 36, label %33
    i32 22, label %37
    i32 23, label %41
    i32 24, label %45
    i32 25, label %45
    i32 26, label %49
  ]

12:                                               ; preds = %9, %9, %9, %9, %9, %9, %9, %9, %9
  %13 = add i32 %5, -5
  %or.cond5 = icmp ult i32 %13, -4
  br i1 %or.cond5, label %14, label %53

14:                                               ; preds = %12
  %15 = load ptr, ptr %8, align 8
  %16 = tail call ptr (ptr, ptr, ptr, ptr, i32, i32, ptr, ...) @proto_tree_add_expert_format(ptr noundef %1, ptr noundef %0, ptr noundef nonnull @ei_ber_error_length, ptr noundef %3, i32 noundef %4, i32 noundef %5, ptr noundef nonnull @.str.343, ptr noundef %15, i32 noundef %5)
  br label %55

17:                                               ; preds = %9
  %.not102 = icmp eq i32 %5, 4
  br i1 %.not102, label %53, label %18

18:                                               ; preds = %17
  %19 = load ptr, ptr %8, align 8
  %20 = tail call ptr (ptr, ptr, ptr, ptr, i32, i32, ptr, ...) @proto_tree_add_expert_format(ptr noundef %1, ptr noundef %0, ptr noundef nonnull @ei_ber_error_length, ptr noundef %3, i32 noundef %4, i32 noundef %5, ptr noundef nonnull @.str.343, ptr noundef %19, i32 noundef %5)
  br label %55

21:                                               ; preds = %9
  %.not101 = icmp eq i32 %5, 4
  br i1 %.not101, label %53, label %22

22:                                               ; preds = %21
  %23 = load ptr, ptr %8, align 8
  %24 = tail call ptr (ptr, ptr, ptr, ptr, i32, i32, ptr, ...) @proto_tree_add_expert_format(ptr noundef %1, ptr noundef %0, ptr noundef nonnull @ei_ber_error_length, ptr noundef %3, i32 noundef %4, i32 noundef %5, ptr noundef nonnull @.str.343, ptr noundef %23, i32 noundef %5)
  br label %55

25:                                               ; preds = %9
  %or.cond7 = icmp ugt i32 %5, 16
  br i1 %or.cond7, label %26, label %53

26:                                               ; preds = %25
  %27 = load ptr, ptr %8, align 8
  %28 = tail call ptr (ptr, ptr, ptr, ptr, i32, i32, ptr, ...) @proto_tree_add_expert_format(ptr noundef %1, ptr noundef %0, ptr noundef nonnull @ei_ber_error_length, ptr noundef %3, i32 noundef %4, i32 noundef %5, ptr noundef nonnull @.str.343, ptr noundef %27, i32 noundef %5)
  br label %55

29:                                               ; preds = %9
  %.not100 = icmp eq i32 %5, 6
  br i1 %.not100, label %53, label %30

30:                                               ; preds = %29
  %31 = load ptr, ptr %8, align 8
  %32 = tail call ptr (ptr, ptr, ptr, ptr, i32, i32, ptr, ...) @proto_tree_add_expert_format(ptr noundef %1, ptr noundef %0, ptr noundef nonnull @ei_ber_error_length, ptr noundef %3, i32 noundef %4, i32 noundef %5, ptr noundef nonnull @.str.343, ptr noundef %31, i32 noundef %5)
  br label %55

33:                                               ; preds = %9
  %.not99 = icmp eq i32 %5, 16
  br i1 %.not99, label %53, label %34

34:                                               ; preds = %33
  %35 = load ptr, ptr %8, align 8
  %36 = tail call ptr (ptr, ptr, ptr, ptr, i32, i32, ptr, ...) @proto_tree_add_expert_format(ptr noundef %1, ptr noundef %0, ptr noundef nonnull @ei_ber_error_length, ptr noundef %3, i32 noundef %4, i32 noundef %5, ptr noundef nonnull @.str.343, ptr noundef %35, i32 noundef %5)
  br label %55

37:                                               ; preds = %9
  %.not98 = icmp eq i32 %5, 4
  br i1 %.not98, label %53, label %38

38:                                               ; preds = %37
  %39 = load ptr, ptr %8, align 8
  %40 = tail call ptr (ptr, ptr, ptr, ptr, i32, i32, ptr, ...) @proto_tree_add_expert_format(ptr noundef %1, ptr noundef %0, ptr noundef nonnull @ei_ber_error_length, ptr noundef %3, i32 noundef %4, i32 noundef %5, ptr noundef nonnull @.str.343, ptr noundef %39, i32 noundef %5)
  br label %55

41:                                               ; preds = %9
  %.not97 = icmp eq i32 %5, 8
  br i1 %.not97, label %53, label %42

42:                                               ; preds = %41
  %43 = load ptr, ptr %8, align 8
  %44 = tail call ptr (ptr, ptr, ptr, ptr, i32, i32, ptr, ...) @proto_tree_add_expert_format(ptr noundef %1, ptr noundef %0, ptr noundef nonnull @ei_ber_error_length, ptr noundef %3, i32 noundef %4, i32 noundef %5, ptr noundef nonnull @.str.343, ptr noundef %43, i32 noundef %5)
  br label %55

45:                                               ; preds = %9, %9
  switch i32 %5, label %46 [
    i32 8, label %53
    i32 4, label %53
  ]

46:                                               ; preds = %45
  %47 = load ptr, ptr %8, align 8
  %48 = tail call ptr (ptr, ptr, ptr, ptr, i32, i32, ptr, ...) @proto_tree_add_expert_format(ptr noundef %1, ptr noundef %0, ptr noundef nonnull @ei_ber_error_length, ptr noundef %3, i32 noundef %4, i32 noundef %5, ptr noundef nonnull @.str.343, ptr noundef %47, i32 noundef %5)
  br label %55

49:                                               ; preds = %9
  %50 = icmp eq i32 %5, 0
  br i1 %50, label %51, label %53

51:                                               ; preds = %49
  %52 = tail call ptr @proto_tree_add_item(ptr noundef %1, i32 noundef %2, ptr noundef %3, i32 noundef %4, i32 noundef 0, i32 noundef %6)
  tail call void (ptr, ptr, ...) @proto_item_append_text(ptr noundef %52, ptr noundef nonnull @.str.342)
  br label %55

53:                                               ; preds = %45, %45, %12, %17, %21, %25, %29, %33, %37, %41, %49, %9, %7
  %54 = tail call ptr @proto_tree_add_item(ptr noundef %1, i32 noundef %2, ptr noundef %3, i32 noundef %4, i32 noundef %5, i32 noundef %6)
  br label %55

55:                                               ; preds = %53, %51, %46, %42, %38, %34, %30, %26, %22, %18, %14
  %.0 = phi ptr [ %54, %53 ], [ %52, %51 ], [ %48, %46 ], [ %44, %42 ], [ %40, %38 ], [ %36, %34 ], [ %32, %30 ], [ %28, %26 ], [ %24, %22 ], [ %20, %18 ], [ %16, %14 ]
  ret ptr %.0
}